; Function Attrs: mustprogress uwtable
define internal noundef zeroext i1 @"_ZNSt17_Function_handlerIFbRKN32pxrInternal_v0_24__pxrReserved__9UsdNotice14ObjectsChangedEEZ18TestObjectsChangedvE3$_7E10_M_managerERSt9_Any_dataRKS8_St18_Manager_operation"(ptr noundef nonnull align 8 captures(none) dereferenceable(16) %0, ptr noundef nonnull readonly align 8 captures(none) dereferenceable(16) %1, i32 noundef %2) #0 align 2 {
  switch i32 %2, label %"_ZNSt14_Function_base13_Base_managerIZ18TestObjectsChangedvE3$_7E10_M_managerERSt9_Any_dataRKS3_St18_Manager_operation.exit" [
    i32 0, label %4
    i32 1, label %5
    i32 3, label %7
    i32 2, label %6
  ]

4:                                                ; preds = %3
  store ptr @"_ZTIZ18TestObjectsChangedvE3$_7", ptr %0, align 8
  br label %"_ZNSt14_Function_base13_Base_managerIZ18TestObjectsChangedvE3$_7E10_M_managerERSt9_Any_dataRKS3_St18_Manager_operation.exit"

5:                                                ; preds = %3
  %.val = load ptr, ptr %1, align 8
  store ptr %.val, ptr %0, align 8
  br label %"_ZNSt14_Function_base13_Base_managerIZ18TestObjectsChangedvE3$_7E10_M_managerERSt9_Any_dataRKS3_St18_Manager_operation.exit"

6:                                                ; preds = %3
  %.val6 = load ptr, ptr %1, align 8
  tail call fastcc void @"_ZNSt14_Function_base13_Base_managerIZ18TestObjectsChangedvE3$_7E15_M_init_functorIRKS1_EEvRSt9_Any_dataOT_"(ptr noundef nonnull align 8 dereferenceable(16) %0, ptr noundef nonnull align 8 dereferenceable(64) %.val6)
  br label %"_ZNSt14_Function_base13_Base_managerIZ18TestObjectsChangedvE3$_7E10_M_managerERSt9_Any_dataRKS3_St18_Manager_operation.exit"

7:                                                ; preds = %3
  %.val7.i = load ptr, ptr %0, align 8
  %8 = icmp eq ptr %.val7.i, null
  br i1 %8, label %"_ZNSt14_Function_base13_Base_managerIZ18TestObjectsChangedvE3$_7E10_M_managerERSt9_Any_dataRKS3_St18_Manager_operation.exit", label %9

9:                                                ; preds = %7
  tail call fastcc void @"_ZZ18TestObjectsChangedvEN3$_7D2Ev"(ptr noundef nonnull align 8 dereferenceable(64) %.val7.i) #23
  tail call void @_ZdlPvm(ptr noundef nonnull %.val7.i, i64 noundef 64) #26
  br label %"_ZNSt14_Function_base13_Base_managerIZ18TestObjectsChangedvE3$_7E10_M_managerERSt9_Any_dataRKS3_St18_Manager_operation.exit"

"_ZNSt14_Function_base13_Base_managerIZ18TestObjectsChangedvE3$_7E10_M_managerERSt9_Any_dataRKS3_St18_Manager_operation.exit": ; preds = %3, %9, %7, %6, %5, %4
  ret i1 false
}